target datalayout = "e-m:e-p270:32:32-p271:32:32-p272:64:64-i64:64-i128:128-f80:128-n8:16:32:64-S128"
target triple = "x86_64-pc-linux-gnu"

%struct.zmq_msg_t = type { [64 x i8] }

@stderr = external global ptr, align 8
@.str = private unnamed_addr constant [12 x i8] c"%s (%s:%d)\0A\00", align 1
@.str.1 = private unnamed_addr constant [103 x i8] c"generated/home/dtcxzyw/WorkSpace/Projects/compilers/llvm-opt-benchmark/bench/libzmq/libzmq/src/zmq.cpp\00", align 1

; Function Attrs: mustprogress uwtable
define i64 @zmq_msg_size(ptr noundef %0) #1 {
  %2 = alloca ptr, align 8
  store ptr %0, ptr %2, align 8, !tbaa !23
  %3 = load ptr, ptr %2, align 8, !tbaa !23
  %4 = call noundef i64 @_ZNK3zmq5msg_t4sizeEv(ptr noundef nonnull align 8 dereferenceable(64) %3)
  ret i64 %4
}

; Function Attrs: mustprogress uwtable
define i32 @zmq_msg_close(ptr noundef %0) #1 {
  %2 = alloca ptr, align 8
  store ptr %0, ptr %2, align 8, !tbaa !23
  %3 = load ptr, ptr %2, align 8, !tbaa !23
  %4 = call noundef i32 @_ZN3zmq5msg_t5closeEv(ptr noundef nonnull align 8 dereferenceable(64) %3)
  ret i32 %4
}

; Function Attrs: inlinehint mustprogress uwtable
define internal noundef i32 @_ZL9s_sendmsgPN3zmq13socket_base_tEP9zmq_msg_ti(ptr noundef %0, ptr noundef %1, i32 noundef %2) #9 {
  %4 = alloca i32, align 4
  %5 = alloca ptr, align 8
  %6 = alloca ptr, align 8
  %7 = alloca i32, align 4
  %8 = alloca i64, align 8
  %9 = alloca i32, align 4
  %10 = alloca i32, align 4
  %11 = alloca i64, align 8
  store ptr %0, ptr %5, align 8, !tbaa !17
  store ptr %1, ptr %6, align 8, !tbaa !23
  store i32 %2, ptr %7, align 4, !tbaa !8
  call void @llvm.lifetime.start.p0(i64 8, ptr %8) #20
  %12 = load ptr, ptr %6, align 8, !tbaa !23
  %13 = call i64 @zmq_msg_size(ptr noundef %12)
  store i64 %13, ptr %8, align 8, !tbaa !13
  call void @llvm.lifetime.start.p0(i64 4, ptr %9) #20
  %14 = load ptr, ptr %5, align 8, !tbaa !17
  %15 = load ptr, ptr %6, align 8, !tbaa !23
  %16 = load i32, ptr %7, align 4, !tbaa !8
  %17 = call noundef i32 @_ZN3zmq13socket_base_t4sendEPNS_5msg_tEi(ptr noundef nonnull align 8 dereferenceable(1825) %14, ptr noundef %15, i32 noundef %16)
  store i32 %17, ptr %9, align 4, !tbaa !8
  %18 = load i32, ptr %9, align 4, !tbaa !8
  %19 = icmp slt i32 %18, 0
  %20 = zext i1 %19 to i64
  %21 = call i64 @llvm.expect.i64(i64 %20, i64 0)
  %22 = icmp ne i64 %21, 0
  br i1 %22, label %23, label %24

23:                                               ; preds = %3
  store i32 -1, ptr %4, align 4
  store i32 1, ptr %10, align 4
  br label %35

24:                                               ; preds = %3
  call void @llvm.lifetime.start.p0(i64 8, ptr %11) #20
  store i64 2147483647, ptr %11, align 8, !tbaa !13
  %25 = load i64, ptr %8, align 8, !tbaa !13
  %26 = load i64, ptr %11, align 8, !tbaa !13
  %27 = icmp ult i64 %25, %26
  br i1 %27, label %28, label %30

28:                                               ; preds = %24
  %29 = load i64, ptr %8, align 8, !tbaa !13
  br label %32

30:                                               ; preds = %24
  %31 = load i64, ptr %11, align 8, !tbaa !13
  br label %32

32:                                               ; preds = %30, %28
  %33 = phi i64 [ %29, %28 ], [ %31, %30 ]
  %34 = trunc i64 %33 to i32
  store i32 %34, ptr %4, align 4
  store i32 1, ptr %10, align 4
  call void @llvm.lifetime.end.p0(i64 8, ptr %11) #20
  br label %35

35:                                               ; preds = %32, %23
  call void @llvm.lifetime.end.p0(i64 4, ptr %9) #20
  call void @llvm.lifetime.end.p0(i64 8, ptr %8) #20
  %36 = load i32, ptr %4, align 4
  ret i32 %36
}

; Function Attrs: mustprogress uwtable
define i32 @zmq_msg_init_buffer(ptr noundef %0, ptr noundef %1, i64 noundef %2) #1 {
  %4 = alloca ptr, align 8
  %5 = alloca ptr, align 8
  %6 = alloca i64, align 8
  store ptr %0, ptr %4, align 8, !tbaa !23
  store ptr %1, ptr %5, align 8, !tbaa !12
  store i64 %2, ptr %6, align 8, !tbaa !13
  %7 = load ptr, ptr %4, align 8, !tbaa !23
  %8 = load ptr, ptr %5, align 8, !tbaa !12
  %9 = load i64, ptr %6, align 8, !tbaa !13
  %10 = call noundef i32 @_ZN3zmq5msg_t11init_bufferEPKvm(ptr noundef nonnull align 8 dereferenceable(64) %7, ptr noundef %8, i64 noundef %9)
  ret i32 %10
}

; Function Attrs: mustprogress uwtable
define internal noundef ptr @_ZL16as_socket_base_tPv(ptr noundef %0) #1 {
  %2 = alloca ptr, align 8
  %3 = alloca ptr, align 8
  %4 = alloca ptr, align 8
  %5 = alloca i32, align 4
  store ptr %0, ptr %3, align 8, !tbaa !12
  call void @llvm.lifetime.start.p0(i64 8, ptr %4) #20
  %6 = load ptr, ptr %3, align 8, !tbaa !12
  store ptr %6, ptr %4, align 8, !tbaa !17
  %7 = load ptr, ptr %3, align 8, !tbaa !12
  %8 = icmp ne ptr %7, null
  br i1 %8, label %9, label %12

9:                                                ; preds = %1
  %10 = load ptr, ptr %4, align 8, !tbaa !17
  %11 = call noundef zeroext i1 @_ZNK3zmq13socket_base_t9check_tagEv(ptr noundef nonnull align 8 dereferenceable(1825) %10)
  br i1 %11, label %14, label %12

12:                                               ; preds = %9, %1
  %13 = call ptr @__errno_location() #19
  store i32 88, ptr %13, align 4, !tbaa !8
  store ptr null, ptr %2, align 8
  store i32 1, ptr %5, align 4
  br label %16

14:                                               ; preds = %9
  %15 = load ptr, ptr %4, align 8, !tbaa !17
  store ptr %15, ptr %2, align 8
  store i32 1, ptr %5, align 4
  br label %16

16:                                               ; preds = %14, %12
  call void @llvm.lifetime.end.p0(i64 8, ptr %4) #20
  %17 = load ptr, ptr %2, align 8
  ret ptr %17
}

; Function Attrs: mustprogress uwtable
define i32 @zmq_send(ptr noundef %0, ptr noundef %1, i64 noundef %2, i32 noundef %3) #1 {
  %5 = alloca i32, align 4
  %6 = alloca ptr, align 8
  %7 = alloca ptr, align 8
  %8 = alloca i64, align 8
  %9 = alloca i32, align 4
  %10 = alloca ptr, align 8
  %11 = alloca i32, align 4
  %12 = alloca %struct.zmq_msg_t, align 8
  %13 = alloca i32, align 4
  %14 = alloca i32, align 4
  %15 = alloca i32, align 4
  %16 = alloca ptr, align 8
  store ptr %0, ptr %6, align 8, !tbaa !12
  store ptr %1, ptr %7, align 8, !tbaa !12
  store i64 %2, ptr %8, align 8, !tbaa !13
  store i32 %3, ptr %9, align 4, !tbaa !8
  call void @llvm.lifetime.start.p0(i64 8, ptr %10) #20
  %17 = load ptr, ptr %6, align 8, !tbaa !12
  %18 = call noundef ptr @_ZL16as_socket_base_tPv(ptr noundef %17)
  store ptr %18, ptr %10, align 8, !tbaa !17
  %19 = load ptr, ptr %10, align 8, !tbaa !17
  %20 = icmp ne ptr %19, null
  br i1 %20, label %22, label %21

21:                                               ; preds = %4
  store i32 -1, ptr %5, align 4
  store i32 1, ptr %11, align 4
  br label %70

22:                                               ; preds = %4
  call void @llvm.lifetime.start.p0(i64 64, ptr %12) #20
  call void @llvm.lifetime.start.p0(i64 4, ptr %13) #20
  %23 = load ptr, ptr %7, align 8, !tbaa !12
  %24 = load i64, ptr %8, align 8, !tbaa !13
  %25 = call i32 @zmq_msg_init_buffer(ptr noundef %12, ptr noundef %23, i64 noundef %24)
  store i32 %25, ptr %13, align 4, !tbaa !8
  %26 = load i32, ptr %13, align 4, !tbaa !8
  %27 = icmp slt i32 %26, 0
  %28 = zext i1 %27 to i64
  %29 = call i64 @llvm.expect.i64(i64 %28, i64 0)
  %30 = icmp ne i64 %29, 0
  br i1 %30, label %31, label %32

31:                                               ; preds = %22
  store i32 -1, ptr %5, align 4
  store i32 1, ptr %11, align 4
  br label %69

32:                                               ; preds = %22
  %33 = load ptr, ptr %10, align 8, !tbaa !17
  %34 = load i32, ptr %9, align 4, !tbaa !8
  %35 = call noundef i32 @_ZL9s_sendmsgPN3zmq13socket_base_tEP9zmq_msg_ti(ptr noundef %33, ptr noundef %12, i32 noundef %34)
  store i32 %35, ptr %13, align 4, !tbaa !8
  %36 = load i32, ptr %13, align 4, !tbaa !8
  %37 = icmp slt i32 %36, 0
  %38 = zext i1 %37 to i64
  %39 = call i64 @llvm.expect.i64(i64 %38, i64 0)
  %40 = icmp ne i64 %39, 0
  br i1 %40, label %41, label %67

41:                                               ; preds = %32
  call void @llvm.lifetime.start.p0(i64 4, ptr %14) #20
  %42 = call ptr @__errno_location() #19
  %43 = load i32, ptr %42, align 4, !tbaa !8
  store i32 %43, ptr %14, align 4, !tbaa !8
  call void @llvm.lifetime.start.p0(i64 4, ptr %15) #20
  %44 = call i32 @zmq_msg_close(ptr noundef %12)
  store i32 %44, ptr %15, align 4, !tbaa !8
  br label %45

45:                                               ; preds = %41
  %46 = load i32, ptr %15, align 4, !tbaa !8
  %47 = icmp eq i32 %46, 0
  %48 = xor i1 %47, true
  %49 = zext i1 %48 to i64
  %50 = call i64 @llvm.expect.i64(i64 %49, i64 0)
  %51 = icmp ne i64 %50, 0
  br i1 %51, label %52, label %62

52:                                               ; preds = %45
  call void @llvm.lifetime.start.p0(i64 8, ptr %16) #20
  %53 = call ptr @__errno_location() #19
  %54 = load i32, ptr %53, align 4, !tbaa !8
  %55 = call ptr @strerror(i32 noundef %54) #20
  store ptr %55, ptr %16, align 8, !tbaa !19
  %56 = load ptr, ptr @stderr, align 8, !tbaa !25
  %57 = load ptr, ptr %16, align 8, !tbaa !19
  %58 = call i32 (ptr, ptr, ...) @fprintf(ptr noundef %56, ptr noundef @.str, ptr noundef %57, ptr noundef @.str.1, i32 noundef 391) #20
  %59 = load ptr, ptr @stderr, align 8, !tbaa !25
  %60 = call i32 @fflush(ptr noundef %59)
  %61 = load ptr, ptr %16, align 8, !tbaa !19
  call void @_ZN3zmq9zmq_abortEPKc(ptr noundef %61)
  call void @llvm.lifetime.end.p0(i64 8, ptr %16) #20
  br label %62

62:                                               ; preds = %52, %45
  br label %63

63:                                               ; preds = %62
  br label %64

64:                                               ; preds = %63
  %65 = load i32, ptr %14, align 4, !tbaa !8
  %66 = call ptr @__errno_location() #19
  store i32 %65, ptr %66, align 4, !tbaa !8
  store i32 -1, ptr %5, align 4
  store i32 1, ptr %11, align 4
  call void @llvm.lifetime.end.p0(i64 4, ptr %15) #20
  call void @llvm.lifetime.end.p0(i64 4, ptr %14) #20
  br label %69

67:                                               ; preds = %32
  %68 = load i32, ptr %13, align 4, !tbaa !8
  store i32 %68, ptr %5, align 4
  store i32 1, ptr %11, align 4
  br label %69

69:                                               ; preds = %67, %64, %31
  call void @llvm.lifetime.end.p0(i64 4, ptr %13) #20
  call void @llvm.lifetime.end.p0(i64 64, ptr %12) #20
  br label %70

70:                                               ; preds = %69, %21
  call void @llvm.lifetime.end.p0(i64 8, ptr %10) #20
  %71 = load i32, ptr %5, align 4
  ret i32 %71
}