; Function Attrs: mustprogress uwtable
define range(i32 -1, -2147483648) i32 @zmq_send(ptr noundef %0, ptr noundef %1, i64 noundef %2, i32 noundef %3) local_unnamed_addr #1 {
  %5 = alloca %struct.zmq_msg_t, align 8
  %.not.i = icmp eq ptr %0, null
  br i1 %.not.i, label %_ZL16as_socket_base_tPv.exit.thread, label %6

6:                                                ; preds = %4
  %7 = tail call noundef zeroext i1 @_ZNK3zmq13socket_base_t9check_tagEv(ptr noundef nonnull align 8 dereferenceable(1825) %0)
  br i1 %7, label %_ZL16as_socket_base_tPv.exit, label %_ZL16as_socket_base_tPv.exit.thread

_ZL16as_socket_base_tPv.exit.thread:              ; preds = %4, %6
  %8 = tail call ptr @__errno_location() #20
  store i32 88, ptr %8, align 4, !tbaa !3
  br label %30

_ZL16as_socket_base_tPv.exit:                     ; preds = %6
  call void @llvm.lifetime.start.p0(i64 64, ptr nonnull %5) #22
  %9 = call noundef i32 @_ZN3zmq5msg_t11init_bufferEPKvm(ptr noundef nonnull align 8 dereferenceable(64) %5, ptr noundef %1, i64 noundef %2)
  %10 = icmp slt i32 %9, 0
  br i1 %10, label %29, label %11, !prof !10

11:                                               ; preds = %_ZL16as_socket_base_tPv.exit
  %12 = call noundef i64 @_ZNK3zmq5msg_t4sizeEv(ptr noundef nonnull align 8 dereferenceable(64) %5)
  %13 = call noundef i32 @_ZN3zmq13socket_base_t4sendEPNS_5msg_tEi(ptr noundef nonnull align 8 dereferenceable(1825) %0, ptr noundef nonnull %5, i32 noundef %3)
  %14 = call i64 @llvm.umin.i64(i64 %12, i64 2147483647)
  %15 = trunc nuw nsw i64 %14 to i32
  %16 = icmp slt i32 %13, 0
  br i1 %16, label %17, label %29, !prof !10

17:                                               ; preds = %11
  %18 = tail call ptr @__errno_location() #20
  %19 = load i32, ptr %18, align 4, !tbaa !3
  %20 = call noundef i32 @_ZN3zmq5msg_t5closeEv(ptr noundef nonnull align 8 dereferenceable(64) %5)
  %.not15 = icmp eq i32 %20, 0
  br i1 %.not15, label %28, label %21, !prof !9

21:                                               ; preds = %17
  %22 = load i32, ptr %18, align 4, !tbaa !3
  %23 = call ptr @strerror(i32 noundef %22) #22
  %24 = load ptr, ptr @stderr, align 8, !tbaa !11
  %25 = call i32 (ptr, ptr, ...) @fprintf(ptr noundef %24, ptr noundef nonnull @.str, ptr noundef %23, ptr noundef nonnull @.str.1, i32 noundef 391) #24
  %26 = load ptr, ptr @stderr, align 8, !tbaa !11
  %27 = call i32 @fflush(ptr noundef %26)
  call void @_ZN3zmq9zmq_abortEPKc(ptr noundef %23)
  br label %28

28:                                               ; preds = %21, %17
  store i32 %19, ptr %18, align 4, !tbaa !3
  br label %29

29:                                               ; preds = %11, %_ZL16as_socket_base_tPv.exit, %28
  %.1 = phi i32 [ -1, %28 ], [ -1, %_ZL16as_socket_base_tPv.exit ], [ %15, %11 ]
  call void @llvm.lifetime.end.p0(i64 64, ptr nonnull %5) #22
  br label %30

30:                                               ; preds = %_ZL16as_socket_base_tPv.exit.thread, %29
  %.0 = phi i32 [ %.1, %29 ], [ -1, %_ZL16as_socket_base_tPv.exit.thread ]
  ret i32 %.0
}